; Function Attrs: mustprogress uwtable
define void @_ZN14RtpAudioStream11stopPlayingEv(ptr noundef nonnull align 8 dereferenceable(7680) %0) local_unnamed_addr #0 align 2 {
  %2 = getelementptr inbounds i8, ptr %0, i64 7480
  %3 = load i8, ptr %2, align 8
  %4 = and i8 %3, 1
  %.not1 = icmp eq i8 %4, 0
  br i1 %.not1, label %5, label %_ZN14RtpAudioStream18outputStateChangedEN6QAudio5StateE.exit

5:                                                ; preds = %1
  %6 = getelementptr inbounds i8, ptr %0, i64 7672
  %7 = load ptr, ptr %6, align 8
  %.not = icmp eq ptr %7, null
  br i1 %.not, label %_ZN14RtpAudioStream18outputStateChangedEN6QAudio5StateE.exit, label %8

8:                                                ; preds = %5
  %9 = tail call noundef i32 @_ZNK10QAudioSink5stateEv(ptr noundef nonnull align 8 dereferenceable(24) %7)
  %10 = icmp eq i32 %9, 2
  %11 = load ptr, ptr %6, align 8
  br i1 %10, label %12, label %19

12:                                               ; preds = %8
  %.not.i = icmp eq ptr %11, null
  br i1 %.not.i, label %_ZN14RtpAudioStream18outputStateChangedEN6QAudio5StateE.exit, label %13

13:                                               ; preds = %12
  %14 = tail call noundef i32 @_ZNK10QAudioSink5errorEv(ptr noundef nonnull align 8 dereferenceable(24) %11)
  %15 = load ptr, ptr %6, align 8
  tail call void @_ZN7QObject9setParentEPS_(ptr noundef nonnull align 8 dereferenceable(16) %15, ptr noundef null)
  %16 = load ptr, ptr %6, align 8
  %17 = tail call noundef zeroext i1 @_ZN7QObject10disconnectEPKS_PKcS1_S3_(ptr noundef nonnull %16, ptr noundef null, ptr noundef null, ptr noundef null)
  %18 = load ptr, ptr %6, align 8
  tail call void @_ZN7QObject11deleteLaterEv(ptr noundef nonnull align 8 dereferenceable(16) %18)
  store ptr null, ptr %6, align 8
  tail call void @_ZN14RtpAudioStream15finishedPlayingEPS_N6QAudio5ErrorE(ptr noundef nonnull align 8 dereferenceable(7680) %0, ptr noundef nonnull %0, i32 noundef %14)
  br label %_ZN14RtpAudioStream18outputStateChangedEN6QAudio5StateE.exit

19:                                               ; preds = %8
  tail call void @_ZN10QAudioSink4stopEv(ptr noundef nonnull align 8 dereferenceable(24) %11)
  br label %_ZN14RtpAudioStream18outputStateChangedEN6QAudio5StateE.exit

_ZN14RtpAudioStream18outputStateChangedEN6QAudio5StateE.exit: ; preds = %13, %12, %19, %1, %5
  ret void
}